(dp1
S'txstatsd_plugin'
p2
ccopy_reg
_reconstructor
p3
(ctwisted.plugin
CachedDropin
p4
c__builtin__
object
p5
NtRp6
(dp7
S'moduleName'
p8
S'twisted.plugins.txstatsd_plugin'
p9
sS'description'
p10
NsS'plugins'
p11
(lp12
g3
(ctwisted.plugin
CachedPlugin
p13
g5
NtRp14
(dp15
S'provided'
p16
(lp17
ctwisted.application.service
IServiceMaker
p18
actwisted.plugin
IPlugin
p19
asS'dropin'
p20
g6
sS'name'
p21
S'serviceMaker'
p22
sg10
NsbasbsS'distinct_plugin'
p23
g3
(g4
g5
NtRp24
(dp25
g8
S'twisted.plugins.distinct_plugin'
p26
sg10
Nsg11
(lp27
g3
(g13
g5
NtRp28
(dp29
g16
(lp30
ctxstatsd.itxstatsd
IMetricFactory
p31
ag19
asg20
g24
sg21
S'distinct_metric_factory'
p32
sg10
NsbasbsS'derive_plugin'
p33
g3
(g4
g5
NtRp34
(dp35
S'moduleName'
p36
S'twisted.plugins.derive_plugin'
p37
sS'description'
p38
NsS'plugins'
p39
(lp40
g3
(g13
g5
NtRp41
(dp42
S'provided'
p43
(lp44
g31
ag19
asS'dropin'
p45
g34
sS'name'
p46
S'derive_metric_factory'
p47
sg38
NsbasbsS'sli_plugin'
p48
g3
(g4
g5
NtRp49
(dp50
g8
S'twisted.plugins.sli_plugin'
p51
sg10
Nsg11
(lp52
g3
(g13
g5
NtRp53
(dp54
g16
(lp55
g31
ag19
asg20
g49
sg21
S'sli_metric_factory'
p56
sg10
Nsbasbs.