(dp1
S'bravod'
p2
ccopy_reg
_reconstructor
p3
(ctwisted.plugin
CachedDropin
p4
c__builtin__
object
p5
Ntp6
Rp7
(dp8
S'plugins'
p9
(lp10
g3
(ctwisted.plugin
CachedPlugin
p11
g5
Ntp12
Rp13
(dp14
S'provided'
p15
(lp16
ctwisted.plugin
IPlugin
p17
actwisted.application.service
IServiceMaker
p18
asS'description'
p19
NsS'name'
p20
S'bsm'
p21
sS'dropin'
p22
g7
sbasg19
NsS'moduleName'
p23
S'twisted.plugins.bravod'
p24
sbs.